libsignon-extension.so.1 libsignon-extension1 #MINVER#
 _ZN6SignOn10KeyHandler10initializeEPNS_21AbstractCryptoManagerERK5QListIPNS_18AbstractKeyManagerEE@Base 8.58+16.04.20151106-0ubuntu2
 _ZN6SignOn10KeyHandler10keyRemovedE10QByteArray@Base 8.58+16.04.20151106-0ubuntu2
 _ZN6SignOn10KeyHandler11keyDisabledE10QByteArray@Base 8.58+16.04.20151106-0ubuntu2
 _ZN6SignOn10KeyHandler11keyInsertedE10QByteArray@Base 8.58+16.04.20151106-0ubuntu2
 _ZN6SignOn10KeyHandler11qt_metacallEN11QMetaObject4CallEiPPv@Base 8.58+16.04.20151106-0ubuntu2
 _ZN6SignOn10KeyHandler11qt_metacastEPKc@Base 8.58+16.04.20151106-0ubuntu2
 _ZN6SignOn10KeyHandler12authorizeKeyERK10QByteArray6QFlagsINS0_14AuthorizationsEE@Base 8.58+16.04.20151106-0ubuntu2
 _ZN6SignOn10KeyHandler13keyAuthorizedE10QByteArray@Base 8.58+16.04.20151106-0ubuntu2
 _ZN6SignOn10KeyHandler16staticMetaObjectE@Base 8.58+16.04.20151106-0ubuntu2
 _ZN6SignOn10KeyHandler22revokeKeyAuthorizationERK10QByteArray@Base 8.58+16.04.20151106-0ubuntu2
 _ZN6SignOn10KeyHandler23keyAuthorizationRevokedE10QByteArray@Base 8.58+16.04.20151106-0ubuntu2
 _ZN6SignOn10KeyHandler24lastAuthorizedKeyRemovedE10QByteArray@Base 8.58+16.04.20151106-0ubuntu2
 _ZN6SignOn10KeyHandler5readyEv@Base 8.58+16.04.20151106-0ubuntu2
 _ZN6SignOn10KeyHandlerC1EP7QObject@Base 8.58+16.04.20151106-0ubuntu2
 _ZN6SignOn10KeyHandlerC2EP7QObject@Base 8.58+16.04.20151106-0ubuntu2
 _ZN6SignOn10KeyHandlerD0Ev@Base 8.58+16.04.20151106-0ubuntu2
 _ZN6SignOn10KeyHandlerD1Ev@Base 8.58+16.04.20151106-0ubuntu2
 _ZN6SignOn10KeyHandlerD2Ev@Base 8.58+16.04.20151106-0ubuntu2
 _ZN6SignOn11AccessReply11qt_metacallEN11QMetaObject4CallEiPPv@Base 8.58+16.04.20151106-0ubuntu2
 _ZN6SignOn11AccessReply11qt_metacastEPKc@Base 8.58+16.04.20151106-0ubuntu2
 _ZN6SignOn11AccessReply16staticMetaObjectE@Base 8.58+16.04.20151106-0ubuntu2
 _ZN6SignOn11AccessReply6acceptEv@Base 8.58+16.04.20151106-0ubuntu2
 _ZN6SignOn11AccessReply7declineEv@Base 8.58+16.04.20151106-0ubuntu2
 _ZN6SignOn11AccessReply8finishedEv@Base 8.58+16.04.20151106-0ubuntu2
 _ZN6SignOn11AccessReplyC1ERKNS_13AccessRequestEP7QObject@Base 8.58+16.04.20151106-0ubuntu2
 _ZN6SignOn11AccessReplyC2ERKNS_13AccessRequestEP7QObject@Base 8.58+16.04.20151106-0ubuntu2
 _ZN6SignOn11AccessReplyD0Ev@Base 8.58+16.04.20151106-0ubuntu2
 _ZN6SignOn11AccessReplyD1Ev@Base 8.58+16.04.20151106-0ubuntu2
 _ZN6SignOn11AccessReplyD2Ev@Base 8.58+16.04.20151106-0ubuntu2
 _ZN6SignOn13AccessRequest11setIdentityEj@Base 8.58+16.04.20151106-0ubuntu2
 _ZN6SignOn13AccessRequest7setPeerERK15QDBusConnectionRK12QDBusMessage@Base 8.58+16.04.20151106-0ubuntu2
 _ZN6SignOn13AccessRequestC1ERKS0_@Base 8.58+16.04.20151106-0ubuntu2
 _ZN6SignOn13AccessRequestC1Ev@Base 8.58+16.04.20151106-0ubuntu2
 _ZN6SignOn13AccessRequestC2ERKS0_@Base 8.58+16.04.20151106-0ubuntu2
 _ZN6SignOn13AccessRequestC2Ev@Base 8.58+16.04.20151106-0ubuntu2
 _ZN6SignOn13AccessRequestD1Ev@Base 8.58+16.04.20151106-0ubuntu2
 _ZN6SignOn13AccessRequestD2Ev@Base 8.58+16.04.20151106-0ubuntu2
 _ZN6SignOn15setLoggingLevelEi@Base 8.58+16.04.20151106-0ubuntu2
 _ZN6SignOn16setUserOwnershipERK7QString@Base 8.58+16.04.20151106-0ubuntu2
 _ZN6SignOn18AbstractKeyManager10keyRemovedE10QByteArray@Base 8.58+16.04.20151106-0ubuntu2
 _ZN6SignOn18AbstractKeyManager11describeKeyERK10QByteArray@Base 8.58+16.04.20151106-0ubuntu2
 _ZN6SignOn18AbstractKeyManager11keyDisabledE10QByteArray@Base 8.58+16.04.20151106-0ubuntu2
 _ZN6SignOn18AbstractKeyManager11keyInsertedE10QByteArray@Base 8.58+16.04.20151106-0ubuntu2
 _ZN6SignOn18AbstractKeyManager11qt_metacallEN11QMetaObject4CallEiPPv@Base 8.58+16.04.20151106-0ubuntu2
 _ZN6SignOn18AbstractKeyManager11qt_metacastEPKc@Base 8.58+16.04.20151106-0ubuntu2
 _ZN6SignOn18AbstractKeyManager12authorizeKeyERK10QByteArrayRK7QString@Base 8.58+16.04.20151106-0ubuntu2
 _ZN6SignOn18AbstractKeyManager13keyAuthorizedE10QByteArrayb@Base 8.58+16.04.20151106-0ubuntu2
 _ZN6SignOn18AbstractKeyManager16staticMetaObjectE@Base 8.58+16.04.20151106-0ubuntu2
 _ZN6SignOn18AbstractKeyManager9queryKeysEv@Base 8.58+16.04.20151106-0ubuntu2
 _ZN6SignOn18AbstractKeyManagerC1EP7QObject@Base 8.58+16.04.20151106-0ubuntu2
 _ZN6SignOn18AbstractKeyManagerC2EP7QObject@Base 8.58+16.04.20151106-0ubuntu2
 _ZN6SignOn18AbstractKeyManagerD0Ev@Base 8.58+16.04.20151106-0ubuntu2
 _ZN6SignOn18AbstractKeyManagerD1Ev@Base 8.58+16.04.20151106-0ubuntu2
 _ZN6SignOn18AbstractKeyManagerD2Ev@Base 8.58+16.04.20151106-0ubuntu2
 _ZN6SignOn18ExtensionInterfaceD0Ev@Base 8.58+16.04.20151106-0ubuntu2
 _ZN6SignOn18ExtensionInterfaceD1Ev@Base 8.58+16.04.20151106-0ubuntu2
 _ZN6SignOn18ExtensionInterfaceD2Ev@Base 8.58+16.04.20151106-0ubuntu2
 _ZN6SignOn18setFilePermissionsERK7QString6QFlagsIN11QFileDevice10PermissionEEb@Base 8.58+16.04.20151106-0ubuntu2
 _ZN6SignOn19ExtensionInterface2D0Ev@Base 8.58+16.04.20151106-0ubuntu2
 _ZN6SignOn19ExtensionInterface2D1Ev@Base 8.58+16.04.20151106-0ubuntu2
 _ZN6SignOn19ExtensionInterface2D2Ev@Base 8.58+16.04.20151106-0ubuntu2
 _ZN6SignOn19ExtensionInterface3D0Ev@Base 8.58+16.04.20151106-0ubuntu2
 _ZN6SignOn19ExtensionInterface3D1Ev@Base 8.58+16.04.20151106-0ubuntu2
 _ZN6SignOn19ExtensionInterface3D2Ev@Base 8.58+16.04.20151106-0ubuntu2
 _ZN6SignOn21AbstractCryptoManager10initializeERK4QMapI7QString8QVariantE@Base 8.58+16.04.20151106-0ubuntu2
 _ZN6SignOn21AbstractCryptoManager11qt_metacallEN11QMetaObject4CallEiPPv@Base 8.58+16.04.20151106-0ubuntu2
 _ZN6SignOn21AbstractCryptoManager11qt_metacastEPKc@Base 8.58+16.04.20151106-0ubuntu2
 _ZN6SignOn21AbstractCryptoManager15mountFileSystemEv@Base 8.58+16.04.20151106-0ubuntu2
 _ZN6SignOn21AbstractCryptoManager15setupFileSystemEv@Base 8.58+16.04.20151106-0ubuntu2
 _ZN6SignOn21AbstractCryptoManager16addEncryptionKeyERK10QByteArrayS3_@Base 8.58+16.04.20151106-0ubuntu2
 _ZN6SignOn21AbstractCryptoManager16deleteFileSystemEv@Base 8.58+16.04.20151106-0ubuntu2
 _ZN6SignOn21AbstractCryptoManager16setEncryptionKeyERK10QByteArray@Base 8.58+16.04.20151106-0ubuntu2
 _ZN6SignOn21AbstractCryptoManager16staticMetaObjectE@Base 8.58+16.04.20151106-0ubuntu2
 _ZN6SignOn21AbstractCryptoManager17fileSystemMountedEv@Base 8.58+16.04.20151106-0ubuntu2
 _ZN6SignOn21AbstractCryptoManager17unmountFileSystemEv@Base 8.58+16.04.20151106-0ubuntu2
 _ZN6SignOn21AbstractCryptoManager18encryptionKeyInUseERK10QByteArray@Base 8.58+16.04.20151106-0ubuntu2
 _ZN6SignOn21AbstractCryptoManager18setFileSystemSetupEb@Base 8.58+16.04.20151106-0ubuntu2
 _ZN6SignOn21AbstractCryptoManager19removeEncryptionKeyERK10QByteArrayS3_@Base 8.58+16.04.20151106-0ubuntu2
 _ZN6SignOn21AbstractCryptoManager20fileSystemUnmountingEv@Base 8.58+16.04.20151106-0ubuntu2
 _ZN6SignOn21AbstractCryptoManager20setFileSystemMountedEb@Base 8.58+16.04.20151106-0ubuntu2
 _ZN6SignOn21AbstractCryptoManagerC1EP7QObject@Base 8.58+16.04.20151106-0ubuntu2
 _ZN6SignOn21AbstractCryptoManagerC2EP7QObject@Base 8.58+16.04.20151106-0ubuntu2
 _ZN6SignOn21AbstractCryptoManagerD0Ev@Base 8.58+16.04.20151106-0ubuntu2
 _ZN6SignOn21AbstractCryptoManagerD1Ev@Base 8.58+16.04.20151106-0ubuntu2
 _ZN6SignOn21AbstractCryptoManagerD2Ev@Base 8.58+16.04.20151106-0ubuntu2
 _ZN6SignOn21AbstractKeyAuthorizer11qt_metacallEN11QMetaObject4CallEiPPv@Base 8.58+16.04.20151106-0ubuntu2
 _ZN6SignOn21AbstractKeyAuthorizer11qt_metacastEPKc@Base 8.58+16.04.20151106-0ubuntu2
 _ZN6SignOn21AbstractKeyAuthorizer16staticMetaObjectE@Base 8.58+16.04.20151106-0ubuntu2
 _ZN6SignOn21AbstractKeyAuthorizer21queryKeyAuthorizationERK10QByteArray6QFlagsINS0_7ReasonsEE@Base 8.58+16.04.20151106-0ubuntu2
 _ZN6SignOn21AbstractKeyAuthorizer23keyAuthorizationQueriedE10QByteArrayi@Base 8.58+16.04.20151106-0ubuntu2
 _ZN6SignOn21AbstractKeyAuthorizerC1EPNS_10KeyHandlerEP7QObject@Base 8.58+16.04.20151106-0ubuntu2
 _ZN6SignOn21AbstractKeyAuthorizerC2EPNS_10KeyHandlerEP7QObject@Base 8.58+16.04.20151106-0ubuntu2
 _ZN6SignOn21AbstractKeyAuthorizerD0Ev@Base 8.58+16.04.20151106-0ubuntu2
 _ZN6SignOn21AbstractKeyAuthorizerD1Ev@Base 8.58+16.04.20151106-0ubuntu2
 _ZN6SignOn21AbstractKeyAuthorizerD2Ev@Base 8.58+16.04.20151106-0ubuntu2
 _ZN6SignOn22AbstractSecretsStorage10clearErrorEv@Base 8.58+16.04.20151106-0ubuntu2
 _ZN6SignOn22AbstractSecretsStorage12setLastErrorERKNS_18CredentialsDBErrorE@Base 8.58+16.04.20151106-0ubuntu2
 _ZN6SignOn22AbstractSecretsStorage13checkPasswordEjRK7QStringS3_@Base 8.58+16.04.20151106-0ubuntu2
 _ZN6SignOn22AbstractSecretsStorage5closeEv@Base 8.58+16.04.20151106-0ubuntu2
 _ZN6SignOn22AbstractSecretsStorage9setIsOpenEb@Base 8.58+16.04.20151106-0ubuntu2
 _ZN6SignOn22AbstractSecretsStorageC1EP7QObject@Base 8.58+16.04.20151106-0ubuntu2
 _ZN6SignOn22AbstractSecretsStorageC2EP7QObject@Base 8.58+16.04.20151106-0ubuntu2
 _ZN6SignOn22AbstractSecretsStorageD0Ev@Base 8.58+16.04.20151106-0ubuntu2
 _ZN6SignOn22AbstractSecretsStorageD1Ev@Base 8.58+16.04.20151106-0ubuntu2
 _ZN6SignOn22AbstractSecretsStorageD2Ev@Base 8.58+16.04.20151106-0ubuntu2
 _ZN6SignOn28AbstractAccessControlManager11appIdOfPeerERK15QDBusConnectionRK12QDBusMessage@Base 8.58+16.04.20151106-0ubuntu2
 _ZN6SignOn28AbstractAccessControlManager11qt_metacallEN11QMetaObject4CallEiPPv@Base 8.58+16.04.20151106-0ubuntu2
 _ZN6SignOn28AbstractAccessControlManager11qt_metacastEPKc@Base 8.58+16.04.20151106-0ubuntu2
 _ZN6SignOn28AbstractAccessControlManager13handleRequestERKNS_13AccessRequestE@Base 8.58+16.04.20151106-0ubuntu2
 _ZN6SignOn28AbstractAccessControlManager16staticMetaObjectE@Base 8.58+16.04.20151106-0ubuntu2
 _ZN6SignOn28AbstractAccessControlManager19keychainWidgetAppIdEv@Base 8.58+16.04.20151106-0ubuntu2
 _ZN6SignOn28AbstractAccessControlManager21isPeerAllowedToAccessERK15QDBusConnectionRK12QDBusMessageRK7QString@Base 8.58+16.04.20151106-0ubuntu2
 _ZN6SignOn28AbstractAccessControlManagerC1EP7QObject@Base 8.58+16.04.20151106-0ubuntu2
 _ZN6SignOn28AbstractAccessControlManagerC2EP7QObject@Base 8.58+16.04.20151106-0ubuntu2
 _ZN6SignOn28AbstractAccessControlManagerD0Ev@Base 8.58+16.04.20151106-0ubuntu2
 _ZN6SignOn28AbstractAccessControlManagerD1Ev@Base 8.58+16.04.20151106-0ubuntu2
 _ZN6SignOn28AbstractAccessControlManagerD2Ev@Base 8.58+16.04.20151106-0ubuntu2
 _ZNK6SignOn10KeyHandler10metaObjectEv@Base 8.58+16.04.20151106-0ubuntu2
 _ZNK6SignOn10KeyHandler12insertedKeysEv@Base 8.58+16.04.20151106-0ubuntu2
 _ZNK6SignOn10KeyHandler13cryptoManagerEv@Base 8.58+16.04.20151106-0ubuntu2
 _ZNK6SignOn10KeyHandler15keyIsAuthorizedERK10QByteArray@Base 8.58+16.04.20151106-0ubuntu2
 _ZNK6SignOn10KeyHandler22canAddKeyAuthorizationEv@Base 8.58+16.04.20151106-0ubuntu2
 _ZNK6SignOn10KeyHandler7isReadyEv@Base 8.58+16.04.20151106-0ubuntu2
 _ZNK6SignOn11AccessReply10isAcceptedEv@Base 8.58+16.04.20151106-0ubuntu2
 _ZNK6SignOn11AccessReply10metaObjectEv@Base 8.58+16.04.20151106-0ubuntu2
 _ZNK6SignOn11AccessReply7requestEv@Base 8.58+16.04.20151106-0ubuntu2
 _ZNK6SignOn13AccessRequest11peerMessageEv@Base 8.58+16.04.20151106-0ubuntu2
 _ZNK6SignOn13AccessRequest14peerConnectionEv@Base 8.58+16.04.20151106-0ubuntu2
 _ZNK6SignOn13AccessRequest8identityEv@Base 8.58+16.04.20151106-0ubuntu2
 _ZNK6SignOn18AbstractKeyManager10metaObjectEv@Base 8.58+16.04.20151106-0ubuntu2
 _ZNK6SignOn18AbstractKeyManager24supportsKeyAuthorizationEv@Base 8.58+16.04.20151106-0ubuntu2
 _ZNK6SignOn18ExtensionInterface10keyManagerEP7QObject@Base 8.58+16.04.20151106-0ubuntu2
 _ZNK6SignOn19ExtensionInterface213keyAuthorizerEPNS_10KeyHandlerEP7QObject@Base 8.58+16.04.20151106-0ubuntu2
 _ZNK6SignOn19ExtensionInterface313cryptoManagerEP7QObject@Base 8.58+16.04.20151106-0ubuntu2
 _ZNK6SignOn19ExtensionInterface314secretsStorageEP7QObject@Base 8.58+16.04.20151106-0ubuntu2
 _ZNK6SignOn19ExtensionInterface320accessControlManagerEP7QObject@Base 8.58+16.04.20151106-0ubuntu2
 _ZNK6SignOn21AbstractCryptoManager10metaObjectEv@Base 8.58+16.04.20151106-0ubuntu2
 _ZNK6SignOn21AbstractCryptoManager11backupFilesEv@Base 8.58+16.04.20151106-0ubuntu2
 _ZNK6SignOn21AbstractCryptoManager13encryptionKeyEv@Base 8.58+16.04.20151106-0ubuntu2
 _ZNK6SignOn21AbstractCryptoManager17fileSystemIsSetupEv@Base 8.58+16.04.20151106-0ubuntu2
 _ZNK6SignOn21AbstractCryptoManager19fileSystemIsMountedEv@Base 8.58+16.04.20151106-0ubuntu2
 _ZNK6SignOn21AbstractCryptoManager19fileSystemMountPathEv@Base 8.58+16.04.20151106-0ubuntu2
 _ZNK6SignOn21AbstractKeyAuthorizer10keyHandlerEv@Base 8.58+16.04.20151106-0ubuntu2
 _ZNK6SignOn21AbstractKeyAuthorizer10metaObjectEv@Base 8.58+16.04.20151106-0ubuntu2
 _ZNK6SignOn22AbstractSecretsStorage6isOpenEv@Base 8.58+16.04.20151106-0ubuntu2
 _ZNK6SignOn22AbstractSecretsStorage9lastErrorEv@Base 8.58+16.04.20151106-0ubuntu2
 _ZNK6SignOn28AbstractAccessControlManager10metaObjectEv@Base 8.58+16.04.20151106-0ubuntu2
 _ZTVN6SignOn10KeyHandlerE@Base 8.58+16.04.20151106-0ubuntu2
 _ZTVN6SignOn11AccessReplyE@Base 8.58+16.04.20151106-0ubuntu2
 _ZTVN6SignOn18AbstractKeyManagerE@Base 8.58+16.04.20151106-0ubuntu2
 _ZTVN6SignOn18ExtensionInterfaceE@Base 8.58+16.04.20151106-0ubuntu2
 _ZTVN6SignOn19ExtensionInterface2E@Base 8.58+16.04.20151106-0ubuntu2
 _ZTVN6SignOn19ExtensionInterface3E@Base 8.58+16.04.20151106-0ubuntu2
 _ZTVN6SignOn21AbstractCryptoManagerE@Base 8.58+16.04.20151106-0ubuntu2
 _ZTVN6SignOn21AbstractKeyAuthorizerE@Base 8.58+16.04.20151106-0ubuntu2
 _ZTVN6SignOn22AbstractSecretsStorageE@Base 8.58+16.04.20151106-0ubuntu2
 _ZTVN6SignOn28AbstractAccessControlManagerE@Base 8.58+16.04.20151106-0ubuntu2
 signonLoggingLevel@Base 8.58+16.04.20151106-0ubuntu2
