libsignon-plugins-common.so.1 libsignon-plugins-common1 #MINVER#
 _Z23expandDBusArgumentValueRK8QVariantPb@Base 8.58+16.04.20151106-0ubuntu2
 _ZN17QtMetaTypePrivate23QMetaTypeFunctionHelperI13QDBusArgumentLb1EE8DestructEPv@Base 8.58+16.04.20151106-0ubuntu2
 _ZN17QtMetaTypePrivate23QMetaTypeFunctionHelperI13QDBusArgumentLb1EE9ConstructEPvPKv@Base 8.58+16.04.20151106-0ubuntu2
 _ZN4QMapI7QString8QVariantE13detach_helperEv@Base 8.58+16.04.20151106-0ubuntu2
 _ZN6SignOn13BlobIOHandler11qt_metacallEN11QMetaObject4CallEiPPv@Base 8.58+16.04.20151106-0ubuntu2
 _ZN6SignOn13BlobIOHandler11qt_metacastEPKc@Base 8.58+16.04.20151106-0ubuntu2
 _ZN6SignOn13BlobIOHandler11receiveDataEi@Base 8.58+16.04.20151106-0ubuntu2
 _ZN6SignOn13BlobIOHandler12dataReceivedERK4QMapI7QString8QVariantE@Base 8.58+16.04.20151106-0ubuntu2
 _ZN6SignOn13BlobIOHandler13pageByteArrayERK10QByteArray@Base 8.58+16.04.20151106-0ubuntu2
 _ZN6SignOn13BlobIOHandler16staticMetaObjectE@Base 8.58+16.04.20151106-0ubuntu2
 _ZN6SignOn13BlobIOHandler21byteArrayToVariantMapERK10QByteArray@Base 8.58+16.04.20151106-0ubuntu2
 _ZN6SignOn13BlobIOHandler21variantMapToByteArrayERK4QMapI7QString8QVariantE@Base 8.58+16.04.20151106-0ubuntu2
 _ZN6SignOn13BlobIOHandler26setReadNotificationEnabledEb@Base 8.58+16.04.20151106-0ubuntu2
 _ZN6SignOn13BlobIOHandler28setReadChannelSocketNotifierEP15QSocketNotifier@Base 8.58+16.04.20151106-0ubuntu2
 _ZN6SignOn13BlobIOHandler5errorEv@Base 8.58+16.04.20151106-0ubuntu2
 _ZN6SignOn13BlobIOHandler8readBlobEv@Base 8.58+16.04.20151106-0ubuntu2
 _ZN6SignOn13BlobIOHandler8sendDataERK4QMapI7QString8QVariantE@Base 8.58+16.04.20151106-0ubuntu2
 _ZN6SignOn13BlobIOHandlerC1EP9QIODeviceS2_P7QObject@Base 8.58+16.04.20151106-0ubuntu2
 _ZN6SignOn13BlobIOHandlerC2EP9QIODeviceS2_P7QObject@Base 8.58+16.04.20151106-0ubuntu2
 _ZN6SignOn13BlobIOHandlerD0Ev@Base 8.58+16.04.20151106-0ubuntu2
 _ZN6SignOn13BlobIOHandlerD1Ev@Base 8.58+16.04.20151106-0ubuntu2
 _ZN6SignOn13BlobIOHandlerD2Ev@Base 8.58+16.04.20151106-0ubuntu2
 _ZN7QVectorI10QByteArrayE11reallocDataEii6QFlagsIN10QArrayData16AllocationOptionEE@Base 8.58+16.04.20151106-0ubuntu2
 _ZN7QVectorI10QByteArrayE6appendERKS0_@Base 8.58+16.04.20151106-0ubuntu2
 _ZN8QMapNodeI7QString8QVariantE14destroySubTreeEv@Base 8.58+16.04.20151106-0ubuntu2
 _ZNK6SignOn13BlobIOHandler10metaObjectEv@Base 8.58+16.04.20151106-0ubuntu2
 _ZNK8QMapNodeI7QString8QVariantE4copyEP8QMapDataIS0_S1_E@Base 8.58+16.04.20151106-0ubuntu2
 _ZTVN6SignOn13BlobIOHandlerE@Base 8.58+16.04.20151106-0ubuntu2
 _ZZN11QMetaTypeIdI13QDBusArgumentE14qt_metatype_idEvE11metatype_id@Base 8.58+16.04.20151106-0ubuntu2
 _ZrsI7QString8QVariantER11QDataStreamS3_R4QMapIT_T0_E@Base 8.58+16.04.20151106-0ubuntu2
libsignon-plugins.so.1 libsignon-plugins-common1 #MINVER#
 _Z17qRegisterMetaTypeIN6SignOn5ErrorEEiPKcPT_N9QtPrivate21MetaTypeDefinedHelperIS4_Xaasr12QMetaTypeId2IS4_E7DefinedntsrS9_9IsBuiltInEE11DefinedTypeE@Base 8.58+16.04.20151106-0ubuntu2
 _ZN17QtMetaTypePrivate23QMetaTypeFunctionHelperIN6SignOn11SessionDataELb1EE8DestructEPv@Base 8.58+16.04.20151106-0ubuntu2
 _ZN17QtMetaTypePrivate23QMetaTypeFunctionHelperIN6SignOn11SessionDataELb1EE9ConstructEPvPKv@Base 8.58+16.04.20151106-0ubuntu2
 _ZN17QtMetaTypePrivate23QMetaTypeFunctionHelperIN6SignOn13UiSessionDataELb1EE8DestructEPv@Base 8.58+16.04.20151106-0ubuntu2
 _ZN17QtMetaTypePrivate23QMetaTypeFunctionHelperIN6SignOn13UiSessionDataELb1EE9ConstructEPvPKv@Base 8.58+16.04.20151106-0ubuntu2
 _ZN17QtMetaTypePrivate23QMetaTypeFunctionHelperIN6SignOn5ErrorELb1EE8DestructEPv@Base 8.58+16.04.20151106-0ubuntu2
 _ZN17QtMetaTypePrivate23QMetaTypeFunctionHelperIN6SignOn5ErrorELb1EE9ConstructEPvPKv@Base 8.58+16.04.20151106-0ubuntu2
 _ZN19AuthPluginInterface11qt_metacallEN11QMetaObject4CallEiPPv@Base 8.58+16.04.20151106-0ubuntu2
 _ZN19AuthPluginInterface11qt_metacastEPKc@Base 8.58+16.04.20151106-0ubuntu2
 _ZN19AuthPluginInterface13statusChangedE15AuthPluginStateRK7QString@Base 8.58+16.04.20151106-0ubuntu2
 _ZN19AuthPluginInterface16staticMetaObjectE@Base 8.58+16.04.20151106-0ubuntu2
 _ZN19AuthPluginInterface18userActionFinishedERKN6SignOn13UiSessionDataE@Base 8.58+16.04.20151106-0ubuntu2
 _ZN19AuthPluginInterface18userActionRequiredERKN6SignOn13UiSessionDataE@Base 8.58+16.04.20151106-0ubuntu2
 _ZN19AuthPluginInterface5abortEv@Base 8.58+16.04.20151106-0ubuntu2
 _ZN19AuthPluginInterface5errorERKN6SignOn5ErrorE@Base 8.58+16.04.20151106-0ubuntu2
 _ZN19AuthPluginInterface5storeERKN6SignOn11SessionDataE@Base 8.58+16.04.20151106-0ubuntu2
 _ZN19AuthPluginInterface6cancelEv@Base 8.58+16.04.20151106-0ubuntu2
 _ZN19AuthPluginInterface6resultERKN6SignOn11SessionDataE@Base 8.58+16.04.20151106-0ubuntu2
 _ZN19AuthPluginInterface7refreshERKN6SignOn13UiSessionDataE@Base 8.58+16.04.20151106-0ubuntu2
 _ZN19AuthPluginInterface9refreshedERKN6SignOn13UiSessionDataE@Base 8.58+16.04.20151106-0ubuntu2
 _ZN6SignOn5ErrorD0Ev@Base 8.58+16.04.20151106-0ubuntu2
 _ZN6SignOn5ErrorD1Ev@Base 8.58+16.04.20151106-0ubuntu2
 _ZN6SignOn5ErrorD2Ev@Base 8.58+16.04.20151106-0ubuntu2
 _ZN8QMapNodeI7QString8QVariantE14destroySubTreeEv@Base 8.58+16.04.20151106-0ubuntu2
 _ZNK19AuthPluginInterface10metaObjectEv@Base 8.58+16.04.20151106-0ubuntu2
 _ZNK8QMapNodeI7QString8QVariantE4copyEP8QMapDataIS0_S1_E@Base 8.58+16.04.20151106-0ubuntu2
 _ZTV19AuthPluginInterface@Base 8.58+16.04.20151106-0ubuntu2
 _ZTVN6SignOn5ErrorE@Base 8.58+16.04.20151106-0ubuntu2
 _ZZN11QMetaTypeIdIN6SignOn11SessionDataEE14qt_metatype_idEvE11metatype_id@Base 8.58+16.04.20151106-0ubuntu2
 _ZZN11QMetaTypeIdIN6SignOn13UiSessionDataEE14qt_metatype_idEvE11metatype_id@Base 8.58+16.04.20151106-0ubuntu2
 _ZZN11QMetaTypeIdIN6SignOn5ErrorEE14qt_metatype_idEvE11metatype_id@Base 8.58+16.04.20151106-0ubuntu2
