libsignon-qt5.so.1 libsignon-qt5-1 #MINVER#
 _ZN6SignOn11AuthService10identitiesERK5QListINS_12IdentityInfoEE@Base 8.58+16.04.20151106-0ubuntu2
 _ZN6SignOn11AuthService11qt_metacallEN11QMetaObject4CallEiPPv@Base 8.58+16.04.20151106-0ubuntu2
 _ZN6SignOn11AuthService11qt_metacastEPKc@Base 8.58+16.04.20151106-0ubuntu2
 _ZN6SignOn11AuthService12queryMethodsEv@Base 8.58+16.04.20151106-0ubuntu2
 _ZN6SignOn11AuthService14IdentityRegExpC1ERK7QString@Base 8.58+16.04.20151106-0ubuntu2
 _ZN6SignOn11AuthService14IdentityRegExpC1ERKS1_@Base 8.58+16.04.20151106-0ubuntu2
 _ZN6SignOn11AuthService14IdentityRegExpC2ERK7QString@Base 8.58+16.04.20151106-0ubuntu2
 _ZN6SignOn11AuthService14IdentityRegExpC2ERKS1_@Base 8.58+16.04.20151106-0ubuntu2
 _ZN6SignOn11AuthService15queryIdentitiesERK4QMapINS0_22IdentityFilterCriteriaENS0_14IdentityRegExpEE@Base 8.58+16.04.20151106-0ubuntu2
 _ZN6SignOn11AuthService15queryMechanismsERK7QString@Base 8.58+16.04.20151106-0ubuntu2
 _ZN6SignOn11AuthService16methodsAvailableERK11QStringList@Base 8.58+16.04.20151106-0ubuntu2
 _ZN6SignOn11AuthService16staticMetaObjectE@Base 8.58+16.04.20151106-0ubuntu2
 _ZN6SignOn11AuthService19mechanismsAvailableERK7QStringRK11QStringList@Base 8.58+16.04.20151106-0ubuntu2
 _ZN6SignOn11AuthService5clearEv@Base 8.58+16.04.20151106-0ubuntu2
 _ZN6SignOn11AuthService5errorERKNS_5ErrorE@Base 8.58+16.04.20151106-0ubuntu2
 _ZN6SignOn11AuthService7clearedEv@Base 8.58+16.04.20151106-0ubuntu2
 _ZN6SignOn11AuthServiceC1EP7QObject@Base 8.58+16.04.20151106-0ubuntu2
 _ZN6SignOn11AuthServiceC2EP7QObject@Base 8.58+16.04.20151106-0ubuntu2
 _ZN6SignOn11AuthServiceD0Ev@Base 8.58+16.04.20151106-0ubuntu2
 _ZN6SignOn11AuthServiceD1Ev@Base 8.58+16.04.20151106-0ubuntu2
 _ZN6SignOn11AuthServiceD2Ev@Base 8.58+16.04.20151106-0ubuntu2
 _ZN6SignOn11AuthSession11qt_metacallEN11QMetaObject4CallEiPPv@Base 8.58+16.04.20151106-0ubuntu2
 _ZN6SignOn11AuthSession11qt_metacastEPKc@Base 8.58+16.04.20151106-0ubuntu2
 _ZN6SignOn11AuthSession12stateChangedENS0_16AuthSessionStateERK7QString@Base 8.58+16.04.20151106-0ubuntu2
 _ZN6SignOn11AuthSession16staticMetaObjectE@Base 8.58+16.04.20151106-0ubuntu2
 _ZN6SignOn11AuthSession19mechanismsAvailableERK11QStringList@Base 8.58+16.04.20151106-0ubuntu2
 _ZN6SignOn11AuthSession24queryAvailableMechanismsERK11QStringList@Base 8.58+16.04.20151106-0ubuntu2
 _ZN6SignOn11AuthSession5errorERKNS_5ErrorE@Base 8.58+16.04.20151106-0ubuntu2
 _ZN6SignOn11AuthSession6cancelEv@Base 8.58+16.04.20151106-0ubuntu2
 _ZN6SignOn11AuthSession7processERKNS_11SessionDataERK7QString@Base 8.58+16.04.20151106-0ubuntu2
 _ZN6SignOn11AuthSession8responseERKNS_11SessionDataE@Base 8.58+16.04.20151106-0ubuntu2
 _ZN6SignOn11AuthSessionC1EjRK7QStringP7QObject@Base 8.58+16.04.20151106-0ubuntu2
 _ZN6SignOn11AuthSessionC2EjRK7QStringP7QObject@Base 8.58+16.04.20151106-0ubuntu2
 _ZN6SignOn11AuthSessionD0Ev@Base 8.58+16.04.20151106-0ubuntu2
 _ZN6SignOn11AuthSessionD1Ev@Base 8.58+16.04.20151106-0ubuntu2
 _ZN6SignOn11AuthSessionD2Ev@Base 8.58+16.04.20151106-0ubuntu2
 _ZN6SignOn12IdentityInfo10setCaptionERK7QString@Base 8.58+16.04.20151106-0ubuntu2
 _ZN6SignOn12IdentityInfo11setRefCountEi@Base 8.58+16.04.20151106-0ubuntu2
 _ZN6SignOn12IdentityInfo11setUserNameERK7QString@Base 8.58+16.04.20151106-0ubuntu2
 _ZN6SignOn12IdentityInfo12removeMethodERK7QString@Base 8.58+16.04.20151106-0ubuntu2
 _ZN6SignOn12IdentityInfo14setStoreSecretEb@Base 8.58+16.04.20151106-0ubuntu2
 _ZN6SignOn12IdentityInfo20setAccessControlListERK11QStringList@Base 8.58+16.04.20151106-0ubuntu2
 _ZN6SignOn12IdentityInfo5setIdEj@Base 8.58+16.04.20151106-0ubuntu2
 _ZN6SignOn12IdentityInfo7setTypeENS0_15CredentialsTypeE@Base 8.58+16.04.20151106-0ubuntu2
 _ZN6SignOn12IdentityInfo8setOwnerERK7QString@Base 8.58+16.04.20151106-0ubuntu2
 _ZN6SignOn12IdentityInfo9setMethodERK7QStringRK11QStringList@Base 8.58+16.04.20151106-0ubuntu2
 _ZN6SignOn12IdentityInfo9setRealmsERK11QStringList@Base 8.58+16.04.20151106-0ubuntu2
 _ZN6SignOn12IdentityInfo9setSecretERK7QStringb@Base 8.58+16.04.20151106-0ubuntu2
 _ZN6SignOn12IdentityInfoC1ERK7QStringS3_RK4QMapIS1_11QStringListE@Base 8.58+16.04.20151106-0ubuntu2
 _ZN6SignOn12IdentityInfoC1ERKS0_@Base 8.58+16.04.20151106-0ubuntu2
 _ZN6SignOn12IdentityInfoC1Ev@Base 8.58+16.04.20151106-0ubuntu2
 _ZN6SignOn12IdentityInfoC2ERK7QStringS3_RK4QMapIS1_11QStringListE@Base 8.58+16.04.20151106-0ubuntu2
 _ZN6SignOn12IdentityInfoC2ERKS0_@Base 8.58+16.04.20151106-0ubuntu2
 _ZN6SignOn12IdentityInfoC2Ev@Base 8.58+16.04.20151106-0ubuntu2
 _ZN6SignOn12IdentityInfoD1Ev@Base 8.58+16.04.20151106-0ubuntu2
 _ZN6SignOn12IdentityInfoD2Ev@Base 8.58+16.04.20151106-0ubuntu2
 _ZN6SignOn12IdentityInfoaSERKS0_@Base 8.58+16.04.20151106-0ubuntu2
 _ZN6SignOn5ErrorC1EiRK7QString@Base 8.58+16.04.20151106-0ubuntu2
 _ZN6SignOn5ErrorC2EiRK7QString@Base 8.58+16.04.20151106-0ubuntu2
 _ZN6SignOn5ErrorD0Ev@Base 8.58+16.04.20151106-0ubuntu2
 _ZN6SignOn5ErrorD1Ev@Base 8.58+16.04.20151106-0ubuntu2
 _ZN6SignOn5ErrorD2Ev@Base 8.58+16.04.20151106-0ubuntu2
 _ZN6SignOn8Identity10verifyUserERK4QMapI7QString8QVariantE@Base 8.58+16.04.20151106-0ubuntu2
 _ZN6SignOn8Identity10verifyUserERK7QString@Base 8.58+16.04.20151106-0ubuntu2
 _ZN6SignOn8Identity11newIdentityERKNS_12IdentityInfoEP7QObject@Base 8.58+16.04.20151106-0ubuntu2
 _ZN6SignOn8Identity11qt_metacallEN11QMetaObject4CallEiPPv@Base 8.58+16.04.20151106-0ubuntu2
 _ZN6SignOn8Identity11qt_metacastEPKc@Base 8.58+16.04.20151106-0ubuntu2
 _ZN6SignOn8Identity12addReferenceERK7QString@Base 8.58+16.04.20151106-0ubuntu2
 _ZN6SignOn8Identity12userVerifiedEb@Base 8.58+16.04.20151106-0ubuntu2
 _ZN6SignOn8Identity12verifySecretERK7QString@Base 8.58+16.04.20151106-0ubuntu2
 _ZN6SignOn8Identity13createSessionERK7QString@Base 8.58+16.04.20151106-0ubuntu2
 _ZN6SignOn8Identity14destroySessionERK8QPointerINS_11AuthSessionEE@Base 8.58+16.04.20151106-0ubuntu2
 _ZN6SignOn8Identity14referenceAddedEv@Base 8.58+16.04.20151106-0ubuntu2
 _ZN6SignOn8Identity14secretVerifiedEb@Base 8.58+16.04.20151106-0ubuntu2
 _ZN6SignOn8Identity15removeReferenceERK7QString@Base 8.58+16.04.20151106-0ubuntu2
 _ZN6SignOn8Identity16existingIdentityEjP7QObject@Base 8.58+16.04.20151106-0ubuntu2
 _ZN6SignOn8Identity16methodsAvailableERK11QStringList@Base 8.58+16.04.20151106-0ubuntu2
 _ZN6SignOn8Identity16referenceRemovedEv@Base 8.58+16.04.20151106-0ubuntu2
 _ZN6SignOn8Identity16staticMetaObjectE@Base 8.58+16.04.20151106-0ubuntu2
 _ZN6SignOn8Identity16storeCredentialsERKNS_12IdentityInfoE@Base 8.58+16.04.20151106-0ubuntu2
 _ZN6SignOn8Identity17credentialsStoredEj@Base 8.58+16.04.20151106-0ubuntu2
 _ZN6SignOn8Identity21queryAvailableMethodsEv@Base 8.58+16.04.20151106-0ubuntu2
 _ZN6SignOn8Identity24requestCredentialsUpdateERK7QString@Base 8.58+16.04.20151106-0ubuntu2
 _ZN6SignOn8Identity4infoERKNS_12IdentityInfoE@Base 8.58+16.04.20151106-0ubuntu2
 _ZN6SignOn8Identity5errorERKNS_5ErrorE@Base 8.58+16.04.20151106-0ubuntu2
 _ZN6SignOn8Identity6removeEv@Base 8.58+16.04.20151106-0ubuntu2
 _ZN6SignOn8Identity7removedEv@Base 8.58+16.04.20151106-0ubuntu2
 _ZN6SignOn8Identity7signOutEv@Base 8.58+16.04.20151106-0ubuntu2
 _ZN6SignOn8Identity9queryInfoEv@Base 8.58+16.04.20151106-0ubuntu2
 _ZN6SignOn8Identity9signedOutEv@Base 8.58+16.04.20151106-0ubuntu2
 _ZN6SignOn8IdentityC1EjP7QObject@Base 8.58+16.04.20151106-0ubuntu2
 _ZN6SignOn8IdentityC2EjP7QObject@Base 8.58+16.04.20151106-0ubuntu2
 _ZN6SignOn8IdentityD0Ev@Base 8.58+16.04.20151106-0ubuntu2
 _ZN6SignOn8IdentityD1Ev@Base 8.58+16.04.20151106-0ubuntu2
 _ZN6SignOn8IdentityD2Ev@Base 8.58+16.04.20151106-0ubuntu2
 _ZN7QStringD1Ev@Base 8.58+16.04.20151106-0ubuntu2
 _ZN7QStringD2Ev@Base 8.58+16.04.20151106-0ubuntu2
 _ZNK6SignOn11AuthService10metaObjectEv@Base 8.58+16.04.20151106-0ubuntu2
 _ZNK6SignOn11AuthService14IdentityRegExp7isValidEv@Base 8.58+16.04.20151106-0ubuntu2
 _ZNK6SignOn11AuthService14IdentityRegExp7patternEv@Base 8.58+16.04.20151106-0ubuntu2
 _ZNK6SignOn11AuthSession10metaObjectEv@Base 8.58+16.04.20151106-0ubuntu2
 _ZNK6SignOn11AuthSession4nameEv@Base 8.58+16.04.20151106-0ubuntu2
 _ZNK6SignOn12IdentityInfo10mechanismsERK7QString@Base 8.58+16.04.20151106-0ubuntu2
 _ZNK6SignOn12IdentityInfo15isStoringSecretEv@Base 8.58+16.04.20151106-0ubuntu2
 _ZNK6SignOn12IdentityInfo17accessControlListEv@Base 8.58+16.04.20151106-0ubuntu2
 _ZNK6SignOn12IdentityInfo2idEv@Base 8.58+16.04.20151106-0ubuntu2
 _ZNK6SignOn12IdentityInfo4typeEv@Base 8.58+16.04.20151106-0ubuntu2
 _ZNK6SignOn12IdentityInfo5ownerEv@Base 8.58+16.04.20151106-0ubuntu2
 _ZNK6SignOn12IdentityInfo6realmsEv@Base 8.58+16.04.20151106-0ubuntu2
 _ZNK6SignOn12IdentityInfo6secretEv@Base 8.58+16.04.20151106-0ubuntu2
 _ZNK6SignOn12IdentityInfo7captionEv@Base 8.58+16.04.20151106-0ubuntu2
 _ZNK6SignOn12IdentityInfo7methodsEv@Base 8.58+16.04.20151106-0ubuntu2
 _ZNK6SignOn12IdentityInfo8refCountEv@Base 8.58+16.04.20151106-0ubuntu2
 _ZNK6SignOn12IdentityInfo8userNameEv@Base 8.58+16.04.20151106-0ubuntu2
 _ZNK6SignOn8Identity10metaObjectEv@Base 8.58+16.04.20151106-0ubuntu2
 _ZNK6SignOn8Identity2idEv@Base 8.58+16.04.20151106-0ubuntu2
 _ZTVN6SignOn11AuthServiceE@Base 8.58+16.04.20151106-0ubuntu2
 _ZTVN6SignOn11AuthSessionE@Base 8.58+16.04.20151106-0ubuntu2
 _ZTVN6SignOn5ErrorE@Base 8.58+16.04.20151106-0ubuntu2
 _ZTVN6SignOn8IdentityE@Base 8.58+16.04.20151106-0ubuntu2
